# SymbolsHelper-Confirmed: 0.6.2 amd64
libktpchat.so.0 libktpchat0 #MINVER#
 _ZN10ChatWidget11changeEventEP6QEvent@Base 0.6.2
 _ZN10ChatWidget11iconChangedERK5KIcon@Base 0.6.2
 _ZN10ChatWidget11qt_metacallEN11QMetaObject4CallEiPPv@Base 0.6.2
 _ZN10ChatWidget11qt_metacastEPKc@Base 0.6.2
 _ZN10ChatWidget11resizeEventEP12QResizeEvent@Base 0.6.2
 _ZN10ChatWidget11sendMessageEv@Base 0.6.2
 _ZN10ChatWidget12initChatAreaEv@Base 0.6.2
 _ZN10ChatWidget12titleChangedERK7QString@Base 0.6.2
 _ZN10ChatWidget13chatViewReadyEv@Base 0.6.2
 _ZN10ChatWidget13keyPressEventEP9QKeyEvent@Base 0.6.2
 _ZN10ChatWidget13setZoomFactorEd@Base 0.6.2
 _ZN10ChatWidget14dragEnterEventEP15QDragEnterEvent@Base 0.6.2
 _ZN10ChatWidget14findTextInChatERK7QString6QFlagsIN8QWebPage8FindFlagEE@Base 0.6.2
 _ZN10ChatWidget14setChatEnabledEb@Base 0.6.2
 _ZN10ChatWidget14setTextChannelERKN2Tp9SharedPtrINS0_11TextChannelEEE@Base 0.6.2
 _ZN10ChatWidget15messageReceivedERKN2Tp15ReceivedMessageE@Base 0.6.2
 _ZN10ChatWidget15remoteChatStateEv@Base 0.6.2
 _ZN10ChatWidget16onHistoryFetchedERK5QListI21AdiumThemeContentInfoE@Base 0.6.2
 _ZN10ChatWidget16staticMetaObjectE@Base 0.6.2
 _ZN10ChatWidget17addEmoticonToChatERK7QString@Base 0.6.2
 _ZN10ChatWidget17handleMessageSentERKN2Tp7MessageE6QFlagsINS0_18MessageSendingFlagEERK7QString@Base 0.6.2
 _ZN10ChatWidget17onInputBoxChangedEv@Base 0.6.2
 _ZN10ChatWidget17userTypingChangedEN2Tp16ChannelChatStateE@Base 0.6.2
 _ZN10ChatWidget17zoomFactorChangedEd@Base 0.6.2
 _ZN10ChatWidget18findNextTextInChatERK7QString6QFlagsIN8QWebPage8FindFlagEE@Base 0.6.2
 _ZN10ChatWidget18searchTextCompleteEb@Base 0.6.2
 _ZN10ChatWidget18setSpellDictionaryERK7QString@Base 0.6.2
 _ZN10ChatWidget19acknowledgeMessagesEv@Base 0.6.2
 _ZN10ChatWidget19notificationClickedEv@Base 0.6.2
 _ZN10ChatWidget19onChatStatusChangedERKN2Tp9SharedPtrINS0_7ContactEEENS0_16ChannelChatStateE@Base 0.6.2
 _ZN10ChatWidget19setupChannelSignalsEv@Base 0.6.2
 _ZN10ChatWidget20onChannelInvalidatedEv@Base 0.6.2
 _ZN10ChatWidget21handleIncomingMessageERKN2Tp15ReceivedMessageEb@Base 0.6.2
 _ZN10ChatWidget21onContactAliasChangedERKN2Tp9SharedPtrINS0_7ContactEEERK7QString@Base 0.6.2
 _ZN10ChatWidget21unreadMessagesChangedEv@Base 0.6.2
 _ZN10ChatWidget22contactPresenceChangedEN3KTp8PresenceE@Base 0.6.2
 _ZN10ChatWidget22currentPresenceChangedERKN2Tp8PresenceE@Base 0.6.2
 _ZN10ChatWidget22findPreviousTextInChatERK7QString6QFlagsIN8QWebPage8FindFlagEE@Base 0.6.2
 _ZN10ChatWidget23loadSpellCheckingOptionEv@Base 0.6.2
 _ZN10ChatWidget23onContactPresenceChangeERKN2Tp9SharedPtrINS0_7ContactEEERKN3KTp8PresenceE@Base 0.6.2
 _ZN10ChatWidget23saveSpellCheckingOptionEv@Base 0.6.2
 _ZN10ChatWidget24onChatPausedTimerExpiredEv@Base 0.6.2
 _ZN10ChatWidget24setupContactModelSignalsEv@Base 0.6.2
 _ZN10ChatWidget25contactBlockStatusChangedEb@Base 0.6.2
 _ZN10ChatWidget26updateSendMessageShortcutsERK9KShortcut@Base 0.6.2
 _ZN10ChatWidget27onContactBlockStatusChangedERKN2Tp9SharedPtrINS0_7ContactEEEb@Base 0.6.2
 _ZN10ChatWidget29previousConversationAvailableEv@Base 0.6.2
 _ZN10ChatWidget33temporaryFileTransferStateChangedEN2Tp17FileTransferStateENS0_29FileTransferStateChangeReasonE@Base 0.6.2
 _ZN10ChatWidget35temporaryFileTransferChannelCreatedEPN2Tp16PendingOperationE@Base 0.6.2
 _ZN10ChatWidget5clearEv@Base 0.6.2
 _ZN10ChatWidget9dropEventEP10QDropEvent@Base 0.6.2
 _ZN10ChatWidgetC1ERKN2Tp9SharedPtrINS0_11TextChannelEEERKNS1_INS0_7AccountEEEP7QWidget@Base 0.6.2
 _ZN10ChatWidgetC2ERKN2Tp9SharedPtrINS0_11TextChannelEEERKNS1_INS0_7AccountEEEP7QWidget@Base 0.6.2
 _ZN10ChatWidgetD0Ev@Base 0.6.2
 _ZN10ChatWidgetD1Ev@Base 0.6.2
 _ZN10ChatWidgetD2Ev@Base 0.6.2
 _ZN13ChatSearchBar10toggleViewEb@Base 0.6.2
 _ZN13ChatSearchBar11qt_metacallEN11QMetaObject4CallEiPPv@Base 0.6.2
 _ZN13ChatSearchBar11qt_metacastEPKc@Base 0.6.2
 _ZN13ChatSearchBar11textChangedERK7QString@Base 0.6.2
 _ZN13ChatSearchBar14findNextSignalERK7QString6QFlagsIN8QWebPage8FindFlagEE@Base 0.6.2
 _ZN13ChatSearchBar14findTextSignalERK7QString6QFlagsIN8QWebPage8FindFlagEE@Base 0.6.2
 _ZN13ChatSearchBar16staticMetaObjectE@Base 0.6.2
 _ZN13ChatSearchBar18findPreviousSignalERK7QString6QFlagsIN8QWebPage8FindFlagEE@Base 0.6.2
 _ZN13ChatSearchBar18flagsChangedSignalERK7QString6QFlagsIN8QWebPage8FindFlagEE@Base 0.6.2
 _ZN13ChatSearchBar19enableSearchButtonsEb@Base 0.6.2
 _ZN13ChatSearchBar19onNextButtonClickedEv@Base 0.6.2
 _ZN13ChatSearchBar19toggleCaseSensitiveEb@Base 0.6.2
 _ZN13ChatSearchBar20onSearchTextCompleteEb@Base 0.6.2
 _ZN13ChatSearchBar23onPreviousButtonClickedEv@Base 0.6.2
 _ZN13ChatSearchBar25enableSearchButtonsSignalEb@Base 0.6.2
 _ZN13ChatSearchBar5eventEP6QEvent@Base 0.6.2
 _ZN13ChatSearchBar9findFlagsEv@Base 0.6.2
 _ZN13ChatSearchBarC1EP7QWidget@Base 0.6.2
 _ZN13ChatSearchBarC2EP7QWidget@Base 0.6.2
 _ZN13ChatSearchBarD0Ev@Base 0.6.2
 _ZN13ChatSearchBarD1Ev@Base 0.6.2
 _ZN13ChatSearchBarD2Ev@Base 0.6.2
 _ZN14AdiumThemeView10appendModeERK21AdiumThemeMessageInfobbb@Base 0.6.2
 _ZN14AdiumThemeView10fontFamilyEv@Base 0.6.2
 _ZN14AdiumThemeView10formatTimeERK7QStringRK9QDateTime@Base 0.6.2
 _ZN14AdiumThemeView10initialiseERK20AdiumThemeHeaderInfo@Base 0.6.2
 _ZN14AdiumThemeView10setVariantERK7QString@Base 0.6.2
 _ZN14AdiumThemeView10wheelEventEP11QWheelEvent@Base 0.6.2
 _ZN14AdiumThemeView11qt_metacallEN11QMetaObject4CallEiPPv@Base 0.6.2
 _ZN14AdiumThemeView11qt_metacastEPKc@Base 0.6.2
 _ZN14AdiumThemeView11setFontSizeEi@Base 0.6.2
 _ZN14AdiumThemeView12appendScriptENS_10AppendModeE@Base 0.6.2
 _ZN14AdiumThemeView12setChatStyleEP15ChatWindowStyle@Base 0.6.2
 _ZN14AdiumThemeView13appendMessageER7QStringRKS0_NS_10AppendModeE@Base 0.6.2
 _ZN14AdiumThemeView13onLinkClickedERK4QUrl@Base 0.6.2
 _ZN14AdiumThemeView13setFontFamilyE7QString@Base 0.6.2
 _ZN14AdiumThemeView16addStatusMessageERK20AdiumThemeStatusInfo@Base 0.6.2
 _ZN14AdiumThemeView16contextMenuEventEP17QContextMenuEvent@Base 0.6.2
 _ZN14AdiumThemeView16setUseCustomFontEb@Base 0.6.2
 _ZN14AdiumThemeView16staticMetaObjectE@Base 0.6.2
 _ZN14AdiumThemeView17addContentMessageERK21AdiumThemeContentInfo@Base 0.6.2
 _ZN14AdiumThemeView17zoomFactorChangedEd@Base 0.6.2
 _ZN14AdiumThemeView18setHeaderDisplayedEb@Base 0.6.2
 _ZN14AdiumThemeView21replaceHeaderKeywordsE7QStringRK20AdiumThemeHeaderInfo@Base 0.6.2
 _ZN14AdiumThemeView21replaceStatusKeywordsER7QStringRK20AdiumThemeStatusInfo@Base 0.6.2
 _ZN14AdiumThemeView22replaceContentKeywordsER7QStringRK21AdiumThemeContentInfo@Base 0.6.2
 _ZN14AdiumThemeView22replaceMessageKeywordsER7QStringRK21AdiumThemeMessageInfo@Base 0.6.2
 _ZN14AdiumThemeView22setShowPresenceChangesEb@Base 0.6.2
 _ZN14AdiumThemeView25onOpenLinkActionTriggeredEv@Base 0.6.2
 _ZN14AdiumThemeView4loadENS_8ChatTypeE@Base 0.6.2
 _ZN14AdiumThemeView5clearEv@Base 0.6.2
 _ZN14AdiumThemeView8fontSizeEv@Base 0.6.2
 _ZN14AdiumThemeViewC1EP7QWidget@Base 0.6.2
 _ZN14AdiumThemeViewC2EP7QWidget@Base 0.6.2
 _ZN14AdiumThemeViewD0Ev@Base 0.6.2
 _ZN14AdiumThemeViewD1Ev@Base 0.6.2
 _ZN14AdiumThemeViewD2Ev@Base 0.6.2
 _ZN14TextChatConfig11qt_metacallEN11QMetaObject4CallEiPPv@Base 0.6.2
 _ZN14TextChatConfig11qt_metacastEPKc@Base 0.6.2
 _ZN14TextChatConfig11setOpenModeENS_11TabOpenModeE@Base 0.6.2
 _ZN14TextChatConfig16scrollbackLengthEv@Base 0.6.2
 _ZN14TextChatConfig16staticMetaObjectE@Base 0.6.2
 _ZN14TextChatConfig19setScrollbackLengthEi@Base 0.6.2
 _ZN14TextChatConfig4syncEv@Base 0.6.2
 _ZN14TextChatConfig5mutexE@Base 0.6.2
 _ZN14TextChatConfig8instanceEv@Base 0.6.2
 _ZN14TextChatConfig8openModeEv@Base 0.6.2
 _ZN14TextChatConfigC1Ev@Base 0.6.2
 _ZN14TextChatConfigC2Ev@Base 0.6.2
 _ZN14TextChatConfigD0Ev@Base 0.6.2
 _ZN14TextChatConfigD1Ev@Base 0.6.2
 _ZN14TextChatConfigD2Ev@Base 0.6.2
 _ZN15ChatWindowStyle10setContentENS_18InternalIdentifierERK7QString@Base 0.6.2
 _ZN15ChatWindowStyle11getVariantsEv@Base 0.6.2
 _ZN15ChatWindowStyle12listVariantsEv@Base 0.6.2
 _ZN15ChatWindowStyle14inheritContentENS_18InternalIdentifierES0_@Base 0.6.2
 _ZN15ChatWindowStyle14readStyleFilesEv@Base 0.6.2
 _ZN15ChatWindowStyle4initERK7QStringNS_14StyleBuildModeE@Base 0.6.2
 _ZN15ChatWindowStyle6reloadEv@Base 0.6.2
 _ZN15ChatWindowStyleC1ERK7QStringNS_14StyleBuildModeE@Base 0.6.2
 _ZN15ChatWindowStyleC1ERK7QStringS2_NS_14StyleBuildModeE@Base 0.6.2
 _ZN15ChatWindowStyleC2ERK7QStringNS_14StyleBuildModeE@Base 0.6.2
 _ZN15ChatWindowStyleC2ERK7QStringS2_NS_14StyleBuildModeE@Base 0.6.2
 _ZN15ChatWindowStyleD0Ev@Base 0.6.2
 _ZN15ChatWindowStyleD1Ev@Base 0.6.2
 _ZN15ChatWindowStyleD2Ev@Base 0.6.2
 _ZN20AdiumThemeHeaderInfo11setChatNameERK7QString@Base 0.6.2
 _ZN20AdiumThemeHeaderInfo12setGroupChatEb@Base 0.6.2
 _ZN20AdiumThemeHeaderInfo13setSourceNameERK7QString@Base 0.6.2
 _ZN20AdiumThemeHeaderInfo13setTimeOpenedERK9QDateTime@Base 0.6.2
 _ZN20AdiumThemeHeaderInfo18setDestinationNameERK7QString@Base 0.6.2
 _ZN20AdiumThemeHeaderInfo19setIncomingIconPathERK4QUrl@Base 0.6.2
 _ZN20AdiumThemeHeaderInfo19setOutgoingIconPathERK4QUrl@Base 0.6.2
 _ZN20AdiumThemeHeaderInfo19setServiceIconImageERK7QString@Base 0.6.2
 _ZN20AdiumThemeHeaderInfo25setDestinationDisplayNameERK7QString@Base 0.6.2
 _ZN20AdiumThemeHeaderInfoC1ERKS_@Base 0.6.2
 _ZN20AdiumThemeHeaderInfoC1Ev@Base 0.6.2
 _ZN20AdiumThemeHeaderInfoC2ERKS_@Base 0.6.2
 _ZN20AdiumThemeHeaderInfoC2Ev@Base 0.6.2
 _ZN20AdiumThemeHeaderInfoD0Ev@Base 0.6.2
 _ZN20AdiumThemeHeaderInfoD1Ev@Base 0.6.2
 _ZN20AdiumThemeHeaderInfoD2Ev@Base 0.6.2
 _ZN20AdiumThemeHeaderInfoaSERKS_@Base 0.6.2
 _ZN20AdiumThemeStatusInfo9setStatusERK7QString@Base 0.6.2
 _ZN20AdiumThemeStatusInfoC1ERKS_@Base 0.6.2
 _ZN20AdiumThemeStatusInfoC1Eb@Base 0.6.2
 _ZN20AdiumThemeStatusInfoC2ERKS_@Base 0.6.2
 _ZN20AdiumThemeStatusInfoC2Eb@Base 0.6.2
 _ZN20AdiumThemeStatusInfoD0Ev@Base 0.6.2
 _ZN20AdiumThemeStatusInfoD1Ev@Base 0.6.2
 _ZN20AdiumThemeStatusInfoD2Ev@Base 0.6.2
 _ZN20AdiumThemeStatusInfoaSERKS_@Base 0.6.2
 _ZN21AdiumThemeContentInfo14setSenderColorERK7QString@Base 0.6.2
 _ZN21AdiumThemeContentInfo15setUserIconPathERK7QString@Base 0.6.2
 _ZN21AdiumThemeContentInfo19setSenderScreenNameERK7QString@Base 0.6.2
 _ZN21AdiumThemeContentInfo19setSenderStatusIconERK7QString@Base 0.6.2
 _ZN21AdiumThemeContentInfo20setSenderDisplayNameERK7QString@Base 0.6.2
 _ZN21AdiumThemeContentInfoC1EN21AdiumThemeMessageInfo11MessageTypeE@Base 0.6.2
 _ZN21AdiumThemeContentInfoC1ERKS_@Base 0.6.2
 _ZN21AdiumThemeContentInfoC1Ev@Base 0.6.2
 _ZN21AdiumThemeContentInfoC2EN21AdiumThemeMessageInfo11MessageTypeE@Base 0.6.2
 _ZN21AdiumThemeContentInfoC2ERKS_@Base 0.6.2
 _ZN21AdiumThemeContentInfoC2Ev@Base 0.6.2
 _ZN21AdiumThemeContentInfoD0Ev@Base 0.6.2
 _ZN21AdiumThemeContentInfoD1Ev@Base 0.6.2
 _ZN21AdiumThemeContentInfoD2Ev@Base 0.6.2
 _ZN21AdiumThemeContentInfoaSERKS_@Base 0.6.2
 _ZN21AdiumThemeMessageInfo10setMessageERK7QString@Base 0.6.2
 _ZN21AdiumThemeMessageInfo10setServiceERK7QString@Base 0.6.2
 _ZN21AdiumThemeMessageInfo18appendMessageClassERK7QString@Base 0.6.2
 _ZN21AdiumThemeMessageInfo7setTimeERK9QDateTime@Base 0.6.2
 _ZN21AdiumThemeMessageInfo9setScriptERK7QString@Base 0.6.2
 _ZN21AdiumThemeMessageInfoC1ENS_11MessageTypeE@Base 0.6.2
 _ZN21AdiumThemeMessageInfoC1ERKS_@Base 0.6.2
 _ZN21AdiumThemeMessageInfoC1Ev@Base 0.6.2
 _ZN21AdiumThemeMessageInfoC2ENS_11MessageTypeE@Base 0.6.2
 _ZN21AdiumThemeMessageInfoC2ERKS_@Base 0.6.2
 _ZN21AdiumThemeMessageInfoC2Ev@Base 0.6.2
 _ZN21AdiumThemeMessageInfoD0Ev@Base 0.6.2
 _ZN21AdiumThemeMessageInfoD1Ev@Base 0.6.2
 _ZN21AdiumThemeMessageInfoD2Ev@Base 0.6.2
 _ZN21AdiumThemeMessageInfoaSERKS_@Base 0.6.2
 _ZN22ChatWindowStyleManager10loadStylesEv@Base 0.6.2
 _ZN22ChatWindowStyleManager11qt_metacallEN11QMetaObject4CallEiPPv@Base 0.6.2
 _ZN22ChatWindowStyleManager11qt_metacastEPKc@Base 0.6.2
 _ZN22ChatWindowStyleManager11removeStyleERK7QString@Base 0.6.2
 _ZN22ChatWindowStyleManager12installStyleERK7QString@Base 0.6.2
 _ZN22ChatWindowStyleManager13slotNewStylesERK13KFileItemList@Base 0.6.2
 _ZN22ChatWindowStyleManager16getStyleFromPoolERK7QString@Base 0.6.2
 _ZN22ChatWindowStyleManager16staticMetaObjectE@Base 0.6.2
 _ZN22ChatWindowStyleManager18loadStylesFinishedEv@Base 0.6.2
 _ZN22ChatWindowStyleManager21getValidStyleFromPoolERK7QString@Base 0.6.2
 _ZN22ChatWindowStyleManager21slotDirectoryFinishedEv@Base 0.6.2
 _ZN22ChatWindowStyleManager4selfEv@Base 0.6.2
 _ZN22ChatWindowStyleManagerC1EP7QObject@Base 0.6.2
 _ZN22ChatWindowStyleManagerC2EP7QObject@Base 0.6.2
 _ZN22ChatWindowStyleManagerD0Ev@Base 0.6.2
 _ZN22ChatWindowStyleManagerD1Ev@Base 0.6.2
 _ZN22ChatWindowStyleManagerD2Ev@Base 0.6.2
 _ZN24ChatStylePlistFileReader16readAndParseFileER5QFile@Base 0.6.2
 _ZN24ChatStylePlistFileReader5parseERK12QDomDocument@Base 0.6.2
 _ZN24ChatStylePlistFileReaderC1ERK10QByteArray@Base 0.6.2
 _ZN24ChatStylePlistFileReaderC1ERK7QString@Base 0.6.2
 _ZN24ChatStylePlistFileReaderC2ERK10QByteArray@Base 0.6.2
 _ZN24ChatStylePlistFileReaderC2ERK7QString@Base 0.6.2
 _ZN24ChatStylePlistFileReaderD0Ev@Base 0.6.2
 _ZN24ChatStylePlistFileReaderD1Ev@Base 0.6.2
 _ZN24ChatStylePlistFileReaderD2Ev@Base 0.6.2
 _ZNK10ChatWidget10metaObjectEv@Base 0.6.2
 _ZNK10ChatWidget10titleColorEv@Base 0.6.2
 _ZNK10ChatWidget10zoomFactorEv@Base 0.6.2
 _ZNK10ChatWidget11accountIconEv@Base 0.6.2
 _ZNK10ChatWidget11isGroupChatEv@Base 0.6.2
 _ZNK10ChatWidget11textChannelEv@Base 0.6.2
 _ZNK10ChatWidget13chatSearchBarEv@Base 0.6.2
 _ZNK10ChatWidget15spellDictionaryEv@Base 0.6.2
 _ZNK10ChatWidget15toggleSearchBarEv@Base 0.6.2
 _ZNK10ChatWidget18unreadMessageCountEv@Base 0.6.2
 _ZNK10ChatWidget4iconEv@Base 0.6.2
 _ZNK10ChatWidget5titleEv@Base 0.6.2
 _ZNK10ChatWidget7accountEv@Base 0.6.2
 _ZNK10ChatWidget7isOnTopEv@Base 0.6.2
 _ZNK13ChatSearchBar10metaObjectEv@Base 0.6.2
 _ZNK13ChatSearchBar9searchBarEv@Base 0.6.2
 _ZNK14AdiumThemeView10metaObjectEv@Base 0.6.2
 _ZNK14AdiumThemeView11variantNameEv@Base 0.6.2
 _ZNK14AdiumThemeView11variantPathEv@Base 0.6.2
 _ZNK14AdiumThemeView12isCustomFontEv@Base 0.6.2
 _ZNK14AdiumThemeView17isHeaderDisplayedEv@Base 0.6.2
 _ZNK14AdiumThemeView19showPresenceChangesEv@Base 0.6.2
 _ZNK14AdiumThemeView9chatStyleEv@Base 0.6.2
 _ZNK14TextChatConfig10metaObjectEv@Base 0.6.2
 _ZNK15ChatWindowStyle10hasCompactERK7QString@Base 0.6.2
 _ZNK15ChatWindowStyle12getTopicHtmlEv@Base 0.6.2
 _ZNK15ChatWindowStyle13getFooterHtmlEv@Base 0.6.2
 _ZNK15ChatWindowStyle13getHeaderHtmlEv@Base 0.6.2
 _ZNK15ChatWindowStyle13getStatusHtmlEv@Base 0.6.2
 _ZNK15ChatWindowStyle15defaultFontSizeEv@Base 0.6.2
 _ZNK15ChatWindowStyle15getTemplateHtmlEv@Base 0.6.2
 _ZNK15ChatWindowStyle16getStyleBaseHrefEv@Base 0.6.2
 _ZNK15ChatWindowStyle17defaultFontFamilyEv@Base 0.6.2
 _ZNK15ChatWindowStyle17hasActionTemplateEv@Base 0.6.2
 _ZNK15ChatWindowStyle18defaultVariantNameEv@Base 0.6.2
 _ZNK15ChatWindowStyle18messageViewVersionEv@Base 0.6.2
 _ZNK15ChatWindowStyle20getStatusHistoryHtmlEv@Base 0.6.2
 _ZNK15ChatWindowStyle21getActionIncomingHtmlEv@Base 0.6.2
 _ZNK15ChatWindowStyle21getActionOutgoingHtmlEv@Base 0.6.2
 _ZNK15ChatWindowStyle21hasCustomTemplateHtmlEv@Base 0.6.2
 _ZNK15ChatWindowStyle22getIncomingContentHtmlEv@Base 0.6.2
 _ZNK15ChatWindowStyle22getIncomingHistoryHtmlEv@Base 0.6.2
 _ZNK15ChatWindowStyle22getOutgoingContentHtmlEv@Base 0.6.2
 _ZNK15ChatWindowStyle22getOutgoingHistoryHtmlEv@Base 0.6.2
 _ZNK15ChatWindowStyle24getOutgoingStateSentHtmlEv@Base 0.6.2
 _ZNK15ChatWindowStyle24getVoiceClipIncomingHtmlEv@Base 0.6.2
 _ZNK15ChatWindowStyle25disableCombineConsecutiveEv@Base 0.6.2
 _ZNK15ChatWindowStyle25getOutgoingStateErrorHtmlEv@Base 0.6.2
 _ZNK15ChatWindowStyle26getIncomingNextContentHtmlEv@Base 0.6.2
 _ZNK15ChatWindowStyle26getIncomingNextHistoryHtmlEv@Base 0.6.2
 _ZNK15ChatWindowStyle26getOutgoingNextContentHtmlEv@Base 0.6.2
 _ZNK15ChatWindowStyle26getOutgoingNextHistoryHtmlEv@Base 0.6.2
 _ZNK15ChatWindowStyle27getFileTransferIncomingHtmlEv@Base 0.6.2
 _ZNK15ChatWindowStyle27getOutgoingStateSendingHtmlEv@Base 0.6.2
 _ZNK15ChatWindowStyle27getOutgoingStateUnknownHtmlEv@Base 0.6.2
 _ZNK15ChatWindowStyle2idEv@Base 0.6.2
 _ZNK15ChatWindowStyle7compactERK7QString@Base 0.6.2
 _ZNK15ChatWindowStyle7contentENS_18InternalIdentifierE@Base 0.6.2
 _ZNK15ChatWindowStyle7isValidEv@Base 0.6.2
 _ZNK15ChatWindowStyle9hasHeaderEv@Base 0.6.2
 _ZNK20AdiumThemeHeaderInfo10sourceNameEv@Base 0.6.2
 _ZNK20AdiumThemeHeaderInfo10timeOpenedEv@Base 0.6.2
 _ZNK20AdiumThemeHeaderInfo11isGroupChatEv@Base 0.6.2
 _ZNK20AdiumThemeHeaderInfo14serviceIconImgEv@Base 0.6.2
 _ZNK20AdiumThemeHeaderInfo15destinationNameEv@Base 0.6.2
 _ZNK20AdiumThemeHeaderInfo16incomingIconPathEv@Base 0.6.2
 _ZNK20AdiumThemeHeaderInfo16outgoingIconPathEv@Base 0.6.2
 _ZNK20AdiumThemeHeaderInfo22destinationDisplayNameEv@Base 0.6.2
 _ZNK20AdiumThemeHeaderInfo8chatNameEv@Base 0.6.2
 _ZNK20AdiumThemeStatusInfo6statusEv@Base 0.6.2
 _ZNK21AdiumThemeContentInfo11senderColorEv@Base 0.6.2
 _ZNK21AdiumThemeContentInfo12userIconPathEv@Base 0.6.2
 _ZNK21AdiumThemeContentInfo16senderScreenNameEv@Base 0.6.2
 _ZNK21AdiumThemeContentInfo16senderStatusIconEv@Base 0.6.2
 _ZNK21AdiumThemeContentInfo17senderDisplayNameEv@Base 0.6.2
 _ZNK21AdiumThemeContentInfo6senderEv@Base 0.6.2
 _ZNK21AdiumThemeMessageInfo14messageClassesEv@Base 0.6.2
 _ZNK21AdiumThemeMessageInfo16messageDirectionEv@Base 0.6.2
 _ZNK21AdiumThemeMessageInfo4timeEv@Base 0.6.2
 _ZNK21AdiumThemeMessageInfo4typeEv@Base 0.6.2
 _ZNK21AdiumThemeMessageInfo6scriptEv@Base 0.6.2
 _ZNK21AdiumThemeMessageInfo7messageEv@Base 0.6.2
 _ZNK21AdiumThemeMessageInfo7serviceEv@Base 0.6.2
 _ZNK21AdiumThemeMessageInfo9userIconsEv@Base 0.6.2
 _ZNK22ChatWindowStyleManager10metaObjectEv@Base 0.6.2
 _ZNK22ChatWindowStyleManager18getAvailableStylesEv@Base 0.6.2
 _ZNK24ChatStylePlistFileReader12CFBundleNameEv@Base 0.6.2
 _ZNK24ChatStylePlistFileReader13showUserIconsERK7QString@Base 0.6.2
 _ZNK24ChatStylePlistFileReader13showUserIconsEv@Base 0.6.2
 _ZNK24ChatStylePlistFileReader14defaultVariantEv@Base 0.6.2
 _ZNK24ChatStylePlistFileReader15allowTextColorsERK7QString@Base 0.6.2
 _ZNK24ChatStylePlistFileReader15allowTextColorsEv@Base 0.6.2
 _ZNK24ChatStylePlistFileReader15defaultFontSizeEv@Base 0.6.2
 _ZNK24ChatStylePlistFileReader17defaultFontFamilyEv@Base 0.6.2
 _ZNK24ChatStylePlistFileReader18CFBundleIdentifierEv@Base 0.6.2
 _ZNK24ChatStylePlistFileReader18messageViewVersionEv@Base 0.6.2
 _ZNK24ChatStylePlistFileReader21CFBundleGetInfoStringEv@Base 0.6.2
 _ZNK24ChatStylePlistFileReader22defaultBackgroundColorERK7QString@Base 0.6.2
 _ZNK24ChatStylePlistFileReader22defaultBackgroundColorEv@Base 0.6.2
 _ZNK24ChatStylePlistFileReader23disableCustomBackgroundEv@Base 0.6.2
 _ZNK24ChatStylePlistFileReader23displayNameForNoVariantEv@Base 0.6.2
 _ZNK24ChatStylePlistFileReader25disableCombineConsecutiveEv@Base 0.6.2
 _ZNK24ChatStylePlistFileReader30defaultBackgroundIsTransparentEv@Base 0.6.2
 _ZNK24ChatStylePlistFileReader6statusEv@Base 0.6.2
 _ZNK24ChatStylePlistFileReader9imageMaskEv@Base 0.6.2
 _ZTI10ChatWidget@Base 0.6.2
 _ZTI13ChatSearchBar@Base 0.6.2
 _ZTI14AdiumThemeView@Base 0.6.2
 _ZTI14TextChatConfig@Base 0.6.2
 _ZTI15ChatWindowStyle@Base 0.6.2
 _ZTI20AdiumThemeHeaderInfo@Base 0.6.2
 _ZTI20AdiumThemeStatusInfo@Base 0.6.2
 _ZTI21AdiumThemeContentInfo@Base 0.6.2
 _ZTI21AdiumThemeMessageInfo@Base 0.6.2
 _ZTI22ChatWindowStyleManager@Base 0.6.2
 _ZTI24ChatStylePlistFileReader@Base 0.6.2
 _ZTS10ChatWidget@Base 0.6.2
 _ZTS13ChatSearchBar@Base 0.6.2
 _ZTS14AdiumThemeView@Base 0.6.2
 _ZTS14TextChatConfig@Base 0.6.2
 _ZTS15ChatWindowStyle@Base 0.6.2
 _ZTS20AdiumThemeHeaderInfo@Base 0.6.2
 _ZTS20AdiumThemeStatusInfo@Base 0.6.2
 _ZTS21AdiumThemeContentInfo@Base 0.6.2
 _ZTS21AdiumThemeMessageInfo@Base 0.6.2
 _ZTS22ChatWindowStyleManager@Base 0.6.2
 _ZTS24ChatStylePlistFileReader@Base 0.6.2
 _ZTV10ChatWidget@Base 0.6.2
 _ZTV13ChatSearchBar@Base 0.6.2
 _ZTV14AdiumThemeView@Base 0.6.2
 _ZTV14TextChatConfig@Base 0.6.2
 _ZTV15ChatWindowStyle@Base 0.6.2
 _ZTV20AdiumThemeHeaderInfo@Base 0.6.2
 _ZTV20AdiumThemeStatusInfo@Base 0.6.2
 _ZTV21AdiumThemeContentInfo@Base 0.6.2
 _ZTV21AdiumThemeMessageInfo@Base 0.6.2
 _ZTV22ChatWindowStyleManager@Base 0.6.2
 _ZTV24ChatStylePlistFileReader@Base 0.6.2
 (c++)"non-virtual thunk to AdiumThemeView::~AdiumThemeView()@Base" 0.6.2
 (c++)"non-virtual thunk to ChatSearchBar::~ChatSearchBar()@Base" 0.6.2
 (c++)"non-virtual thunk to ChatWidget::~ChatWidget()@Base" 0.6.2
